target datalayout = "e-m:e-p270:32:32-p271:32:32-p272:64:64-i64:64-i128:128-f80:128-n8:16:32:64-S128"
target triple = "x86_64-pc-linux-gnu"

%struct.cli_ctx_tag = type { ptr, ptr, ptr, ptr, ptr, ptr, ptr, i64, ptr, i32, i32, ptr, i32, i32, ptr, [16 x i8], ptr, ptr, ptr, ptr, ptr, ptr, %struct.timeval, i8, i8 }
%struct.timeval = type { i64, i64 }
%struct.cl_engine = type { i32, i32, i32, [2 x i32], i32, i32, i32, ptr, i32, i64, i32, i32, i64, i64, i32, i32, i32, i32, ptr, ptr, ptr, ptr, ptr, ptr, ptr, ptr, ptr, ptr, ptr, ptr, ptr, ptr, ptr, ptr, ptr, ptr, ptr, i64, ptr, %struct.crtmgr, ptr, ptr, ptr, ptr, ptr, ptr, ptr, ptr, ptr, ptr, ptr, ptr, ptr, ptr, ptr, ptr, ptr, %struct.cli_all_bc, [7 x ptr], [7 x i32], i32, i32, i32, i32, i64, i64, i64, i64, i64, ptr, ptr, ptr, ptr, ptr, ptr, ptr, ptr, ptr, i32, i32, i32, i64, i64, i64, ptr }
%struct.crtmgr = type { ptr, i32 }
%struct.cli_all_bc = type { ptr, i32, ptr, %struct.cli_environment, i32 }
%struct.cli_environment = type { i32, i32, i32, i32, i32, i32, i32, [65 x i8], [65 x i8], [65 x i8], [65 x i8], [65 x i8], [65 x i8], [65 x i8], i8, i8, i8, i8, i8, i8, i8, i8, i8 }
%struct.rtf_object_data = type { ptr, i32, i32, i32, i32, ptr, ptr, ptr, i64, i64 }

@.str.27 = private unnamed_addr constant [34 x i8] c"RTF:Scanning embedded object: %s\0A\00", align 1
@.str.28 = private unnamed_addr constant [21 x i8] c"Decoding ole object\0A\00", align 1

; Function Attrs: nounwind uwtable
define internal i32 @decode_and_scan(ptr noundef %0, ptr noundef %1) #0 {
  %3 = alloca ptr, align 8
  %4 = alloca ptr, align 8
  %5 = alloca i32, align 4
  store ptr %0, ptr %3, align 8
  store ptr %1, ptr %4, align 8
  store i32 0, ptr %5, align 4
  %6 = load ptr, ptr %3, align 8
  %7 = getelementptr inbounds %struct.rtf_object_data, ptr %6, i32 0, i32 0
  %8 = load ptr, ptr %7, align 8
  call void (ptr, ...) @cli_dbgmsg(ptr noundef @.str.27, ptr noundef %8)
  %9 = load ptr, ptr %3, align 8
  %10 = getelementptr inbounds %struct.rtf_object_data, ptr %9, i32 0, i32 1
  %11 = load i32, ptr %10, align 8
  %12 = icmp sgt i32 %11, 0
  br i1 %12, label %13, label %40

13:                                               ; preds = %2
  %14 = load ptr, ptr %3, align 8
  %15 = getelementptr inbounds %struct.rtf_object_data, ptr %14, i32 0, i32 9
  %16 = load i64, ptr %15, align 8
  %17 = icmp eq i64 %16, 1
  br i1 %17, label %18, label %24

18:                                               ; preds = %13
  call void (ptr, ...) @cli_dbgmsg(ptr noundef @.str.28)
  %19 = load ptr, ptr %3, align 8
  %20 = getelementptr inbounds %struct.rtf_object_data, ptr %19, i32 0, i32 1
  %21 = load i32, ptr %20, align 8
  %22 = load ptr, ptr %4, align 8
  %23 = call i32 @cli_scan_ole10(i32 noundef %21, ptr noundef %22)
  store i32 %23, ptr %5, align 4
  br label %33

24:                                               ; preds = %13
  %25 = load ptr, ptr %3, align 8
  %26 = getelementptr inbounds %struct.rtf_object_data, ptr %25, i32 0, i32 1
  %27 = load i32, ptr %26, align 8
  %28 = load ptr, ptr %3, align 8
  %29 = getelementptr inbounds %struct.rtf_object_data, ptr %28, i32 0, i32 0
  %30 = load ptr, ptr %29, align 8
  %31 = load ptr, ptr %4, align 8
  %32 = call i32 @cli_magic_scan_desc(i32 noundef %27, ptr noundef %30, ptr noundef %31, ptr noundef null, i32 noundef 0)
  store i32 %32, ptr %5, align 4
  br label %33

33:                                               ; preds = %24, %18
  %34 = load ptr, ptr %3, align 8
  %35 = getelementptr inbounds %struct.rtf_object_data, ptr %34, i32 0, i32 1
  %36 = load i32, ptr %35, align 8
  %37 = call i32 @close(i32 noundef %36)
  %38 = load ptr, ptr %3, align 8
  %39 = getelementptr inbounds %struct.rtf_object_data, ptr %38, i32 0, i32 1
  store i32 -1, ptr %39, align 8
  br label %40

40:                                               ; preds = %33, %2
  %41 = load ptr, ptr %3, align 8
  %42 = getelementptr inbounds %struct.rtf_object_data, ptr %41, i32 0, i32 0
  %43 = load ptr, ptr %42, align 8
  %44 = icmp ne ptr %43, null
  br i1 %44, label %45, label %66

45:                                               ; preds = %40
  %46 = load ptr, ptr %4, align 8
  %47 = getelementptr inbounds %struct.cli_ctx_tag, ptr %46, i32 0, i32 6
  %48 = load ptr, ptr %47, align 8
  %49 = getelementptr inbounds %struct.cl_engine, ptr %48, i32 0, i32 8
  %50 = load i32, ptr %49, align 8
  %51 = icmp ne i32 %50, 0
  br i1 %51, label %60, label %52

52:                                               ; preds = %45
  %53 = load ptr, ptr %3, align 8
  %54 = getelementptr inbounds %struct.rtf_object_data, ptr %53, i32 0, i32 0
  %55 = load ptr, ptr %54, align 8
  %56 = call i32 @cli_unlink(ptr noundef %55)
  %57 = icmp ne i32 %56, 0
  br i1 %57, label %58, label %59

58:                                               ; preds = %52
  store i32 10, ptr %5, align 4
  br label %59

59:                                               ; preds = %58, %52
  br label %60

60:                                               ; preds = %59, %45
  %61 = load ptr, ptr %3, align 8
  %62 = getelementptr inbounds %struct.rtf_object_data, ptr %61, i32 0, i32 0
  %63 = load ptr, ptr %62, align 8
  call void @free(ptr noundef %63) #7
  %64 = load ptr, ptr %3, align 8
  %65 = getelementptr inbounds %struct.rtf_object_data, ptr %64, i32 0, i32 0
  store ptr null, ptr %65, align 8
  br label %66

66:                                               ; preds = %60, %40
  %67 = load i32, ptr %5, align 4
  ret i32 %67
}