; Function Attrs: nounwind uwtable
define internal fastcc i32 @decode_and_scan(ptr nocapture noundef %0, ptr noundef %1) unnamed_addr #0 {
  %3 = load ptr, ptr %0, align 8
  tail call void (ptr, ...) @cli_dbgmsg(ptr noundef nonnull @.str.27, ptr noundef %3) #9
  %4 = getelementptr inbounds i8, ptr %0, i64 8
  %5 = load i32, ptr %4, align 8
  %6 = icmp sgt i32 %5, 0
  br i1 %6, label %7, label %20

7:                                                ; preds = %2
  %8 = getelementptr inbounds i8, ptr %0, i64 56
  %9 = load i64, ptr %8, align 8
  %10 = icmp eq i64 %9, 1
  br i1 %10, label %11, label %14

11:                                               ; preds = %7
  tail call void (ptr, ...) @cli_dbgmsg(ptr noundef nonnull @.str.28) #9
  %12 = load i32, ptr %4, align 8
  %13 = tail call i32 @cli_scan_ole10(i32 noundef %12, ptr noundef %1) #9
  br label %17

14:                                               ; preds = %7
  %15 = load ptr, ptr %0, align 8
  %16 = tail call i32 @cli_magic_scan_desc(i32 noundef %5, ptr noundef %15, ptr noundef %1, ptr noundef null, i32 noundef 0) #9
  br label %17

17:                                               ; preds = %14, %11
  %.0 = phi i32 [ %13, %11 ], [ %16, %14 ]
  %18 = load i32, ptr %4, align 8
  %19 = tail call i32 @close(i32 noundef %18) #9
  store i32 -1, ptr %4, align 8
  br label %20

20:                                               ; preds = %17, %2
  %.1 = phi i32 [ %.0, %17 ], [ 0, %2 ]
  %21 = load ptr, ptr %0, align 8
  %.not = icmp eq ptr %21, null
  br i1 %.not, label %31, label %22

22:                                               ; preds = %20
  %23 = getelementptr inbounds i8, ptr %1, i64 48
  %24 = load ptr, ptr %23, align 8
  %25 = getelementptr inbounds i8, ptr %24, i64 40
  %26 = load i32, ptr %25, align 8
  %.not17 = icmp eq i32 %26, 0
  br i1 %.not17, label %27, label %29

27:                                               ; preds = %22
  %28 = tail call i32 @cli_unlink(ptr noundef nonnull %21) #9
  %.not18 = icmp eq i32 %28, 0
  %spec.select = select i1 %.not18, i32 %.1, i32 10
  %.pre = load ptr, ptr %0, align 8
  br label %29

29:                                               ; preds = %27, %22
  %30 = phi ptr [ %21, %22 ], [ %.pre, %27 ]
  %.2 = phi i32 [ %.1, %22 ], [ %spec.select, %27 ]
  tail call void @free(ptr noundef %30) #9
  store ptr null, ptr %0, align 8
  br label %31

31:                                               ; preds = %29, %20
  %.3 = phi i32 [ %.2, %29 ], [ %.1, %20 ]
  ret i32 %.3
}